; Function Attrs: nounwind uwtable
define noalias noundef ptr @Llb_ManFlowMinCut(ptr noundef readonly captures(none) %0) local_unnamed_addr #0 {
  %2 = getelementptr i8, ptr %0, i64 104
  %.val24 = load i32, ptr %2, align 8, !tbaa !46
  %3 = tail call noalias dereferenceable_or_null(16) ptr @malloc(i64 noundef 16) #20
  %4 = add i32 %.val24, -1
  %or.cond.i = icmp ult i32 %4, 7
  %spec.store.select.i = select i1 %or.cond.i, i32 8, i32 %.val24
  %5 = getelementptr inbounds nuw i8, ptr %3, i64 4
  store i32 0, ptr %5, align 4, !tbaa !10
  store i32 %spec.store.select.i, ptr %3, align 8, !tbaa !3
  %.not.i = icmp eq i32 %spec.store.select.i, 0
  br i1 %.not.i, label %Vec_PtrAlloc.exit, label %6

6:                                                ; preds = %1
  %7 = sext i32 %spec.store.select.i to i64
  %8 = shl nsw i64 %7, 3
  %9 = tail call noalias ptr @malloc(i64 noundef %8) #20
  br label %Vec_PtrAlloc.exit

Vec_PtrAlloc.exit:                                ; preds = %1, %6
  %10 = phi ptr [ %9, %6 ], [ null, %1 ]
  %11 = getelementptr inbounds nuw i8, ptr %3, i64 8
  store ptr %10, ptr %11, align 8, !tbaa !9
  %12 = getelementptr inbounds nuw i8, ptr %0, i64 32
  %13 = load ptr, ptr %12, align 8, !tbaa !35
  %14 = getelementptr i8, ptr %13, i64 4
  %.val1929 = load i32, ptr %14, align 4, !tbaa !10
  %15 = icmp sgt i32 %.val1929, 0
  br i1 %15, label %.lr.ph, label %.critedge

.lr.ph:                                           ; preds = %Vec_PtrAlloc.exit
  %16 = getelementptr i8, ptr %0, i64 312
  br label %17

17:                                               ; preds = %.lr.ph, %62
  %18 = phi ptr [ %13, %.lr.ph ], [ %63, %62 ]
  %19 = phi i32 [ %spec.store.select.i, %.lr.ph ], [ %64, %62 ]
  %20 = phi i32 [ 0, %.lr.ph ], [ %65, %62 ]
  %indvars.iv = phi i64 [ 0, %.lr.ph ], [ %indvars.iv.next, %62 ]
  %21 = getelementptr i8, ptr %18, i64 8
  %.val = load ptr, ptr %21, align 8, !tbaa !9
  %22 = getelementptr inbounds nuw ptr, ptr %.val, i64 %indvars.iv
  %23 = load ptr, ptr %22, align 8, !tbaa !11
  %24 = icmp eq ptr %23, null
  br i1 %24, label %62, label %25

25:                                               ; preds = %17
  %26 = getelementptr i8, ptr %23, i64 40
  %.val26 = load ptr, ptr %26, align 8, !tbaa !40
  %.not = icmp eq ptr %.val26, null
  br i1 %.not, label %62, label %27

27:                                               ; preds = %25
  %.val22 = load i32, ptr %16, align 8, !tbaa !14
  %28 = getelementptr i8, ptr %23, i64 32
  %.val23 = load i32, ptr %28, align 8, !tbaa !28
  %.not27 = icmp eq i32 %.val23, %.val22
  br i1 %.not27, label %29, label %62

29:                                               ; preds = %27
  %30 = getelementptr inbounds nuw i8, ptr %23, i64 24
  %31 = load i64, ptr %30, align 8
  %32 = and i64 %31, 16
  %.not17 = icmp eq i64 %32, 0
  br i1 %.not17, label %33, label %35

33:                                               ; preds = %29
  %34 = getelementptr i8, ptr %.val26, i64 32
  %.val21 = load i32, ptr %34, align 8, !tbaa !28
  %.not28 = icmp eq i32 %.val21, %.val22
  br i1 %.not28, label %62, label %35

35:                                               ; preds = %33, %29
  %36 = icmp eq i32 %20, %19
  br i1 %36, label %37, label %.Vec_PtrGrow.exit11_crit_edge.i

.Vec_PtrGrow.exit11_crit_edge.i:                  ; preds = %35
  %.pre.i = load ptr, ptr %11, align 8, !tbaa !9
  br label %Vec_PtrPush.exit

37:                                               ; preds = %35
  %38 = icmp slt i32 %19, 16
  br i1 %38, label %39, label %46

39:                                               ; preds = %37
  %40 = load ptr, ptr %11, align 8, !tbaa !9
  %.not9.i.i = icmp eq ptr %40, null
  br i1 %.not9.i.i, label %43, label %41

41:                                               ; preds = %39
  %42 = tail call dereferenceable_or_null(128) ptr @realloc(ptr noundef nonnull %40, i64 noundef 128) #21
  br label %Vec_PtrGrow.exit.i

43:                                               ; preds = %39
  %44 = tail call noalias dereferenceable_or_null(128) ptr @malloc(i64 noundef 128) #20
  br label %Vec_PtrGrow.exit.i

Vec_PtrGrow.exit.i:                               ; preds = %43, %41
  %45 = phi ptr [ %42, %41 ], [ %44, %43 ]
  store ptr %45, ptr %11, align 8, !tbaa !9
  store i32 16, ptr %3, align 8, !tbaa !3
  br label %Vec_PtrPush.exit

46:                                               ; preds = %37
  %47 = shl nuw nsw i32 %19, 1
  %48 = load ptr, ptr %11, align 8, !tbaa !9
  %.not9.i10.i = icmp eq ptr %48, null
  %49 = zext nneg i32 %47 to i64
  %50 = shl nuw nsw i64 %49, 3
  br i1 %.not9.i10.i, label %53, label %51

51:                                               ; preds = %46
  %52 = tail call ptr @realloc(ptr noundef nonnull %48, i64 noundef %50) #21
  br label %55

53:                                               ; preds = %46
  %54 = tail call noalias ptr @malloc(i64 noundef %50) #20
  br label %55

55:                                               ; preds = %53, %51
  %56 = phi ptr [ %52, %51 ], [ %54, %53 ]
  store ptr %56, ptr %11, align 8, !tbaa !9
  store i32 %47, ptr %3, align 8, !tbaa !3
  br label %Vec_PtrPush.exit

Vec_PtrPush.exit:                                 ; preds = %.Vec_PtrGrow.exit11_crit_edge.i, %Vec_PtrGrow.exit.i, %55
  %57 = phi i32 [ %19, %.Vec_PtrGrow.exit11_crit_edge.i ], [ %47, %55 ], [ 16, %Vec_PtrGrow.exit.i ]
  %58 = phi ptr [ %.pre.i, %.Vec_PtrGrow.exit11_crit_edge.i ], [ %56, %55 ], [ %45, %Vec_PtrGrow.exit.i ]
  %59 = add nsw i32 %20, 1
  store i32 %59, ptr %5, align 4, !tbaa !10
  %60 = sext i32 %20 to i64
  %61 = getelementptr inbounds ptr, ptr %58, i64 %60
  store ptr %23, ptr %61, align 8, !tbaa !11
  %.pre = load ptr, ptr %12, align 8, !tbaa !35
  br label %62

62:                                               ; preds = %17, %Vec_PtrPush.exit, %33, %27, %25
  %63 = phi ptr [ %18, %17 ], [ %.pre, %Vec_PtrPush.exit ], [ %18, %33 ], [ %18, %27 ], [ %18, %25 ]
  %64 = phi i32 [ %19, %17 ], [ %57, %Vec_PtrPush.exit ], [ %19, %33 ], [ %19, %27 ], [ %19, %25 ]
  %65 = phi i32 [ %20, %17 ], [ %59, %Vec_PtrPush.exit ], [ %20, %33 ], [ %20, %27 ], [ %20, %25 ]
  %indvars.iv.next = add nuw nsw i64 %indvars.iv, 1
  %66 = getelementptr i8, ptr %63, i64 4
  %.val19 = load i32, ptr %66, align 4, !tbaa !10
  %67 = sext i32 %.val19 to i64
  %68 = icmp slt i64 %indvars.iv.next, %67
  br i1 %68, label %17, label %.critedge, !llvm.loop !74

.critedge:                                        ; preds = %62, %Vec_PtrAlloc.exit
  ret ptr %3
}